target datalayout = "e-m:e-p270:32:32-p271:32:32-p272:64:64-i64:64-i128:128-f80:128-n8:16:32:64-S128"
target triple = "x86_64-pc-linux-gnu"

%struct.zskiplistNode = type { ptr, double, ptr, [0 x %struct.zskiplistLevel] }
%struct.zskiplistLevel = type { ptr, i64 }

; Function Attrs: nounwind uwtable
define dso_local ptr @zslCreateNode(i32 noundef %0, double noundef %1, ptr noundef %2) #0 {
  %4 = alloca i32, align 4
  %5 = alloca double, align 8
  %6 = alloca ptr, align 8
  %7 = alloca ptr, align 8
  store i32 %0, ptr %4, align 4, !tbaa !5
  store double %1, ptr %5, align 8, !tbaa !9
  store ptr %2, ptr %6, align 8, !tbaa !11
  call void @llvm.lifetime.start.p0(i64 8, ptr %7) #12
  %8 = load i32, ptr %4, align 4, !tbaa !5
  %9 = sext i32 %8 to i64
  %10 = mul i64 %9, 16
  %11 = add i64 24, %10
  %12 = call noalias ptr @zmalloc(i64 noundef %11) #13
  store ptr %12, ptr %7, align 8, !tbaa !14
  %13 = load double, ptr %5, align 8, !tbaa !9
  %14 = load ptr, ptr %7, align 8, !tbaa !14
  %15 = getelementptr inbounds nuw %struct.zskiplistNode, ptr %14, i32 0, i32 1
  store double %13, ptr %15, align 8, !tbaa !9
  %16 = load ptr, ptr %6, align 8, !tbaa !11
  %17 = load ptr, ptr %7, align 8, !tbaa !14
  %18 = getelementptr inbounds nuw %struct.zskiplistNode, ptr %17, i32 0, i32 0
  store ptr %16, ptr %18, align 8, !tbaa !11
  %19 = load ptr, ptr %7, align 8, !tbaa !14
  call void @llvm.lifetime.end.p0(i64 8, ptr %7) #12
  ret ptr %19
}