; Function Attrs: nounwind uwtable
define dso_local noalias noundef ptr @zslCreateNode(i32 noundef %0, double noundef %1, ptr noundef %2) local_unnamed_addr #0 {
  %4 = sext i32 %0 to i64
  %5 = shl nsw i64 %4, 4
  %6 = add nsw i64 %5, 24
  %7 = tail call noalias ptr @zmalloc(i64 noundef %6) #17
  %8 = getelementptr inbounds nuw i8, ptr %7, i64 8
  store double %1, ptr %8, align 8, !tbaa !5
  store ptr %2, ptr %7, align 8, !tbaa !9
  ret ptr %7
}